; Function Attrs: nounwind uwtable
define noalias noundef ptr @zend_strndup(ptr nocapture noundef readonly %0, i64 noundef %1) local_unnamed_addr #0 {
  %3 = add i64 %1, 1
  %4 = icmp eq i64 %3, 0
  br i1 %4, label %5, label %6

5:                                                ; preds = %2
  tail call void (i32, ptr, ...) @zend_error_noreturn(i32 noundef 1, ptr noundef nonnull @.str.1, i64 noundef %1) #38
  unreachable

6:                                                ; preds = %2
  %7 = tail call noalias ptr @malloc(i64 noundef %3) #39
  %8 = icmp eq ptr %7, null
  br i1 %8, label %9, label %10

9:                                                ; preds = %6
  tail call fastcc void @zend_out_of_memory() #34
  unreachable

10:                                               ; preds = %6
  %.not = icmp eq i64 %1, 0
  br i1 %.not, label %12, label %11

11:                                               ; preds = %10
  tail call void @llvm.memcpy.p0.p0.i64(ptr nonnull align 1 %7, ptr align 1 %0, i64 %1, i1 false)
  br label %12

12:                                               ; preds = %11, %10
  %13 = getelementptr inbounds i8, ptr %7, i64 %1
  store i8 0, ptr %13, align 1
  ret ptr %7
}